target datalayout = "e-m:e-p270:32:32-p271:32:32-p272:64:64-i64:64-i128:128-f80:128-n8:16:32:64-S128"
target triple = "x86_64-pc-linux-gnu"

%"class.std::weak_ordering" = type { i8 }
%"struct.std::_Rb_tree_key_compare" = type { %"struct.std::less" }
%"struct.std::less" = type { i8 }
%"struct.std::_Rb_tree_header" = type { %"struct.std::_Rb_tree_node_base", i64 }
%"struct.std::_Rb_tree_node_base" = type { i32, ptr, ptr, ptr }
%"struct.std::_Head_base.1" = type { ptr }
%"class.nix::ref" = type { %"class.std::shared_ptr" }
%"class.std::shared_ptr" = type { %"class.std::__shared_ptr" }
%"class.std::__shared_ptr" = type { ptr, %"class.std::__shared_count" }
%"class.std::__shared_count" = type { ptr }
%"struct.std::__cmp_cat::__unspec" = type { i8 }
%"class.std::tuple.6" = type { %"struct.std::_Tuple_impl.7" }
%"struct.std::_Tuple_impl.7" = type { %"struct.std::_Tuple_impl.8", %"struct.std::_Head_base.1" }
%"struct.std::_Tuple_impl.8" = type { %"struct.std::_Head_base.9" }
%"struct.std::_Head_base.9" = type { ptr }
%"struct.nix::BuiltPathBuilt" = type { %"class.nix::ref", %"class.std::map" }
%"class.std::map" = type { %"class.std::_Rb_tree" }
%"class.std::_Rb_tree" = type { %"struct.std::_Rb_tree<std::__cxx11::basic_string<char>, std::pair<const std::__cxx11::basic_string<char>, nix::StorePath>, std::_Select1st<std::pair<const std::__cxx11::basic_string<char>, nix::StorePath>>, std::less<std::__cxx11::basic_string<char>>>::_Rb_tree_impl" }
%"struct.std::_Rb_tree<std::__cxx11::basic_string<char>, std::pair<const std::__cxx11::basic_string<char>, nix::StorePath>, std::_Select1st<std::pair<const std::__cxx11::basic_string<char>, nix::StorePath>>, std::less<std::__cxx11::basic_string<char>>>::_Rb_tree_impl" = type { %"struct.std::_Rb_tree_key_compare", %"struct.std::_Rb_tree_header" }

; Function Attrs: mustprogress nounwind uwtable
define linkonce_odr void @_ZNSt10_Head_baseILm1ERKSt3mapINSt7__cxx1112basic_stringIcSt11char_traitsIcESaIcEEEN3nix9StorePathESt4lessIS6_ESaISt4pairIKS6_S8_EEELb0EEC2ESH_(ptr noundef nonnull align 8 dereferenceable(8) %0, ptr noundef nonnull align 8 dereferenceable(48) %1) unnamed_addr #2 comdat align 2 {
  %3 = alloca ptr, align 8
  %4 = alloca ptr, align 8
  store ptr %0, ptr %3, align 8
  store ptr %1, ptr %4, align 8
  %5 = load ptr, ptr %3, align 8
  %6 = getelementptr inbounds %"struct.std::_Head_base.9", ptr %5, i32 0, i32 0
  %7 = load ptr, ptr %4, align 8
  store ptr %7, ptr %6, align 8
  ret void
}

; Function Attrs: mustprogress nounwind uwtable
define linkonce_odr void @_ZNSt10_Head_baseILm0ERN3nix15SingleBuiltPathELb0EEC2ES2_(ptr noundef nonnull align 8 dereferenceable(8) %0, ptr noundef nonnull align 8 dereferenceable(81) %1) unnamed_addr #2 comdat align 2 {
  %3 = alloca ptr, align 8
  %4 = alloca ptr, align 8
  store ptr %0, ptr %3, align 8
  store ptr %1, ptr %4, align 8
  %5 = load ptr, ptr %3, align 8
  %6 = getelementptr inbounds %"struct.std::_Head_base.1", ptr %5, i32 0, i32 0
  %7 = load ptr, ptr %4, align 8
  store ptr %7, ptr %6, align 8
  ret void
}

; Function Attrs: mustprogress uwtable
define linkonce_odr void @_ZNSt11_Tuple_implILm1EJRKSt3mapINSt7__cxx1112basic_stringIcSt11char_traitsIcESaIcEEEN3nix9StorePathESt4lessIS6_ESaISt4pairIKS6_S8_EEEEEC2ESH_(ptr noundef nonnull align 8 dereferenceable(8) %0, ptr noundef nonnull align 8 dereferenceable(48) %1) unnamed_addr #5 comdat align 2 {
  %3 = alloca ptr, align 8
  %4 = alloca ptr, align 8
  store ptr %0, ptr %3, align 8
  store ptr %1, ptr %4, align 8
  %5 = load ptr, ptr %3, align 8
  %6 = load ptr, ptr %4, align 8
  call void @_ZNSt10_Head_baseILm1ERKSt3mapINSt7__cxx1112basic_stringIcSt11char_traitsIcESaIcEEEN3nix9StorePathESt4lessIS6_ESaISt4pairIKS6_S8_EEELb0EEC2ESH_(ptr noundef nonnull align 8 dereferenceable(8) %5, ptr noundef nonnull align 8 dereferenceable(48) %6)
  ret void
}

; Function Attrs: mustprogress nounwind uwtable
define linkonce_odr noundef ptr @_ZNKSt12__shared_ptrIN3nix15SingleBuiltPathELN9__gnu_cxx12_Lock_policyE2EE3getEv(ptr noundef nonnull align 8 dereferenceable(16) %0) #2 comdat align 2 {
  %2 = alloca ptr, align 8
  store ptr %0, ptr %2, align 8
  %3 = load ptr, ptr %2, align 8
  %4 = getelementptr inbounds %"class.std::__shared_ptr", ptr %3, i32 0, i32 0
  %5 = load ptr, ptr %4, align 8
  ret ptr %5
}

; Function Attrs: noreturn nounwind uwtable
define linkonce_odr hidden void @__clang_call_terminate(ptr noundef %0) #7 comdat {
  %2 = call ptr @__cxa_begin_catch(ptr %0) #1
  call void @_ZSt9terminatev() #16
  unreachable
}

; Function Attrs: mustprogress uwtable
define linkonce_odr void @_ZNSt11_Tuple_implILm0EJRN3nix15SingleBuiltPathERKSt3mapINSt7__cxx1112basic_stringIcSt11char_traitsIcESaIcEEENS0_9StorePathESt4lessIS9_ESaISt4pairIKS9_SA_EEEEEC2ES2_SJ_(ptr noundef nonnull align 8 dereferenceable(16) %0, ptr noundef nonnull align 8 dereferenceable(81) %1, ptr noundef nonnull align 8 dereferenceable(48) %2) unnamed_addr #5 comdat align 2 {
  %4 = alloca ptr, align 8
  %5 = alloca ptr, align 8
  %6 = alloca ptr, align 8
  store ptr %0, ptr %4, align 8
  store ptr %1, ptr %5, align 8
  store ptr %2, ptr %6, align 8
  %7 = load ptr, ptr %4, align 8
  %8 = load ptr, ptr %6, align 8
  call void @_ZNSt11_Tuple_implILm1EJRKSt3mapINSt7__cxx1112basic_stringIcSt11char_traitsIcESaIcEEEN3nix9StorePathESt4lessIS6_ESaISt4pairIKS6_S8_EEEEEC2ESH_(ptr noundef nonnull align 8 dereferenceable(8) %7, ptr noundef nonnull align 8 dereferenceable(48) %8)
  %9 = getelementptr inbounds i8, ptr %7, i64 8
  %10 = load ptr, ptr %5, align 8
  call void @_ZNSt10_Head_baseILm0ERN3nix15SingleBuiltPathELb0EEC2ES2_(ptr noundef nonnull align 8 dereferenceable(8) %9, ptr noundef nonnull align 8 dereferenceable(81) %10)
  ret void
}

; Function Attrs: mustprogress nounwind uwtable
define linkonce_odr noundef ptr @_ZNKSt19__shared_ptr_accessIN3nix15SingleBuiltPathELN9__gnu_cxx12_Lock_policyE2ELb0ELb0EE6_M_getEv(ptr noundef nonnull align 1 dereferenceable(1) %0) #2 comdat align 2 {
  %2 = alloca ptr, align 8
  store ptr %0, ptr %2, align 8
  %3 = load ptr, ptr %2, align 8
  %4 = call noundef ptr @_ZNKSt12__shared_ptrIN3nix15SingleBuiltPathELN9__gnu_cxx12_Lock_policyE2EE3getEv(ptr noundef nonnull align 8 dereferenceable(16) %3) #1
  ret ptr %4
}

; Function Attrs: mustprogress nounwind uwtable
define linkonce_odr void @_ZNSt5tupleIJRN3nix15SingleBuiltPathERKSt3mapINSt7__cxx1112basic_stringIcSt11char_traitsIcESaIcEEENS0_9StorePathESt4lessIS9_ESaISt4pairIKS9_SA_EEEEEC2ILb1ETnNSt9enable_ifIXclsr4_TCCIXT_EEE29__is_implicitly_constructibleIS2_SJ_EEEbE4typeELb1EEES2_SJ_(ptr noundef nonnull align 8 dereferenceable(16) %0, ptr noundef nonnull align 8 dereferenceable(81) %1, ptr noundef nonnull align 8 dereferenceable(48) %2) unnamed_addr #2 comdat align 2 personality ptr @__gxx_personality_v0 {
  %4 = alloca ptr, align 8
  %5 = alloca ptr, align 8
  %6 = alloca ptr, align 8
  store ptr %0, ptr %4, align 8
  store ptr %1, ptr %5, align 8
  store ptr %2, ptr %6, align 8
  %7 = load ptr, ptr %4, align 8
  %8 = load ptr, ptr %5, align 8
  %9 = load ptr, ptr %6, align 8
  invoke void @_ZNSt11_Tuple_implILm0EJRN3nix15SingleBuiltPathERKSt3mapINSt7__cxx1112basic_stringIcSt11char_traitsIcESaIcEEENS0_9StorePathESt4lessIS9_ESaISt4pairIKS9_SA_EEEEEC2ES2_SJ_(ptr noundef nonnull align 8 dereferenceable(16) %7, ptr noundef nonnull align 8 dereferenceable(81) %8, ptr noundef nonnull align 8 dereferenceable(48) %9)
          to label %10 unwind label %11

10:                                               ; preds = %3
  ret void

11:                                               ; preds = %3
  %12 = landingpad { ptr, i32 }
          catch ptr null
  %13 = extractvalue { ptr, i32 } %12, 0
  call void @__clang_call_terminate(ptr %13) #16
  unreachable
}

; Function Attrs: mustprogress nounwind uwtable
define linkonce_odr noundef nonnull align 8 dereferenceable(81) ptr @_ZNKSt19__shared_ptr_accessIN3nix15SingleBuiltPathELN9__gnu_cxx12_Lock_policyE2ELb0ELb0EEdeEv(ptr noundef nonnull align 1 dereferenceable(1) %0) #2 comdat align 2 {
  %2 = alloca ptr, align 8
  store ptr %0, ptr %2, align 8
  %3 = load ptr, ptr %2, align 8
  br label %4

4:                                                ; preds = %1
  br label %5

5:                                                ; preds = %4
  br label %6

6:                                                ; preds = %5
  %7 = call noundef ptr @_ZNKSt19__shared_ptr_accessIN3nix15SingleBuiltPathELN9__gnu_cxx12_Lock_policyE2ELb0ELb0EE6_M_getEv(ptr noundef nonnull align 1 dereferenceable(1) %3) #1
  ret ptr %7
}

; Function Attrs: mustprogress nounwind uwtable
define linkonce_odr noundef zeroext i1 @_ZStltSt13weak_orderingNSt9__cmp_cat8__unspecE(i8 %0) #2 comdat {
  %2 = alloca %"class.std::weak_ordering", align 1
  %3 = getelementptr inbounds %"class.std::weak_ordering", ptr %2, i32 0, i32 0
  store i8 %0, ptr %3, align 1
  %4 = getelementptr inbounds %"class.std::weak_ordering", ptr %2, i32 0, i32 0
  %5 = load i8, ptr %4, align 1
  %6 = sext i8 %5 to i32
  %7 = icmp slt i32 %6, 0
  ret i1 %7
}

; Function Attrs: mustprogress nounwind uwtable
define linkonce_odr void @_ZNSt9__cmp_cat8__unspecC2EPS0_(ptr noundef nonnull align 1 dereferenceable(1) %0, ptr noundef %1) unnamed_addr #2 comdat align 2 {
  %3 = alloca ptr, align 8
  %4 = alloca ptr, align 8
  store ptr %0, ptr %3, align 8
  store ptr %1, ptr %4, align 8
  ret void
}

; Function Attrs: mustprogress uwtable
define linkonce_odr i8 @_ZStssIJRN3nix15SingleBuiltPathERKSt3mapINSt7__cxx1112basic_stringIcSt11char_traitsIcESaIcEEENS0_9StorePathESt4lessIS9_ESaISt4pairIKS9_SA_EEEEJS2_SJ_EENSt26common_comparison_categoryIJDpDTclL_ZNSt8__detail11__synth3wayEEclsr3stdE7declvalIRT_EEclsr3stdE7declvalIRT0_EEEEEE4typeERKSt5tupleIJDpSM_EERKSU_IJDpSO_EE(ptr noundef nonnull align 8 dereferenceable(16) %0, ptr noundef nonnull align 8 dereferenceable(16) %1) #5 comdat {
  %3 = alloca %"class.std::weak_ordering", align 1
  %4 = alloca ptr, align 8
  %5 = alloca ptr, align 8
  store ptr %0, ptr %4, align 8
  store ptr %1, ptr %5, align 8
  %6 = load ptr, ptr %4, align 8
  %7 = load ptr, ptr %5, align 8
  %8 = call i8 @_ZSt11__tuple_cmpISt13weak_orderingSt5tupleIJRN3nix15SingleBuiltPathERKSt3mapINSt7__cxx1112basic_stringIcSt11char_traitsIcESaIcEEENS2_9StorePathESt4lessISB_ESaISt4pairIKSB_SC_EEEEESM_Lm0EJLm1EEET_RKT0_RKT1_St16integer_sequenceImJXT2_EXspT3_EEE(ptr noundef nonnull align 8 dereferenceable(16) %6, ptr noundef nonnull align 8 dereferenceable(16) %7)
  %9 = getelementptr inbounds %"class.std::weak_ordering", ptr %3, i32 0, i32 0
  store i8 %8, ptr %9, align 1
  %10 = getelementptr inbounds %"class.std::weak_ordering", ptr %3, i32 0, i32 0
  %11 = load i8, ptr %10, align 1
  ret i8 %11
}

; Function Attrs: mustprogress nounwind uwtable
define linkonce_odr void @_ZSt3tieIJN3nix15SingleBuiltPathEKSt3mapINSt7__cxx1112basic_stringIcSt11char_traitsIcESaIcEEENS0_9StorePathESt4lessIS8_ESaISt4pairIKS8_S9_EEEEESt5tupleIJDpRT_EESL_(ptr dead_on_unwind noalias writable sret(%"class.std::tuple.6") align 8 %0, ptr noundef nonnull align 8 dereferenceable(81) %1, ptr noundef nonnull align 8 dereferenceable(48) %2) #2 comdat {
  %4 = alloca ptr, align 8
  %5 = alloca ptr, align 8
  %6 = alloca ptr, align 8
  store ptr %0, ptr %4, align 8
  store ptr %1, ptr %5, align 8
  store ptr %2, ptr %6, align 8
  %7 = load ptr, ptr %5, align 8
  %8 = load ptr, ptr %6, align 8
  call void @_ZNSt5tupleIJRN3nix15SingleBuiltPathERKSt3mapINSt7__cxx1112basic_stringIcSt11char_traitsIcESaIcEEENS0_9StorePathESt4lessIS9_ESaISt4pairIKS9_SA_EEEEEC2ILb1ETnNSt9enable_ifIXclsr4_TCCIXT_EEE29__is_implicitly_constructibleIS2_SJ_EEEbE4typeELb1EEES2_SJ_(ptr noundef nonnull align 8 dereferenceable(16) %0, ptr noundef nonnull align 8 dereferenceable(81) %7, ptr noundef nonnull align 8 dereferenceable(48) %8) #1
  ret void
}

; Function Attrs: mustprogress nounwind uwtable
define linkonce_odr noundef nonnull align 8 dereferenceable(81) ptr @_ZNK3nix3refINS_15SingleBuiltPathEEdeEv(ptr noundef nonnull align 8 dereferenceable(16) %0) #2 comdat align 2 {
  %2 = alloca ptr, align 8
  store ptr %0, ptr %2, align 8
  %3 = load ptr, ptr %2, align 8
  %4 = getelementptr inbounds %"class.nix::ref", ptr %3, i32 0, i32 0
  %5 = call noundef nonnull align 8 dereferenceable(81) ptr @_ZNKSt19__shared_ptr_accessIN3nix15SingleBuiltPathELN9__gnu_cxx12_Lock_policyE2ELb0ELb0EEdeEv(ptr noundef nonnull align 1 dereferenceable(1) %4) #1
  ret ptr %5
}

; Function Attrs: mustprogress uwtable
define noundef zeroext i1 @_ZNK3nix14BuiltPathBuiltltERKS0_(ptr noundef nonnull align 8 dereferenceable(64) %0, ptr noundef nonnull align 8 dereferenceable(64) %1) #5 align 2 {
  %3 = alloca ptr, align 8
  %4 = alloca ptr, align 8
  %5 = alloca ptr, align 8
  %6 = alloca %"class.std::tuple.6", align 8
  %7 = alloca %"class.std::tuple.6", align 8
  %8 = alloca %"class.std::weak_ordering", align 1
  %9 = alloca %"struct.std::__cmp_cat::__unspec", align 1
  store ptr %0, ptr %3, align 8
  store ptr %1, ptr %4, align 8
  %10 = load ptr, ptr %3, align 8
  store ptr %10, ptr %5, align 8
  %11 = load ptr, ptr %5, align 8
  %12 = getelementptr inbounds %"struct.nix::BuiltPathBuilt", ptr %11, i32 0, i32 0
  %13 = call noundef nonnull align 8 dereferenceable(81) ptr @_ZNK3nix3refINS_15SingleBuiltPathEEdeEv(ptr noundef nonnull align 8 dereferenceable(16) %12)
  %14 = load ptr, ptr %5, align 8
  %15 = getelementptr inbounds %"struct.nix::BuiltPathBuilt", ptr %14, i32 0, i32 1
  call void @_ZSt3tieIJN3nix15SingleBuiltPathEKSt3mapINSt7__cxx1112basic_stringIcSt11char_traitsIcESaIcEEENS0_9StorePathESt4lessIS8_ESaISt4pairIKS8_S9_EEEEESt5tupleIJDpRT_EESL_(ptr dead_on_unwind writable sret(%"class.std::tuple.6") align 8 %6, ptr noundef nonnull align 8 dereferenceable(81) %13, ptr noundef nonnull align 8 dereferenceable(48) %15) #1
  %16 = load ptr, ptr %4, align 8
  store ptr %16, ptr %5, align 8
  %17 = load ptr, ptr %5, align 8
  %18 = getelementptr inbounds %"struct.nix::BuiltPathBuilt", ptr %17, i32 0, i32 0
  %19 = call noundef nonnull align 8 dereferenceable(81) ptr @_ZNK3nix3refINS_15SingleBuiltPathEEdeEv(ptr noundef nonnull align 8 dereferenceable(16) %18)
  %20 = load ptr, ptr %5, align 8
  %21 = getelementptr inbounds %"struct.nix::BuiltPathBuilt", ptr %20, i32 0, i32 1
  call void @_ZSt3tieIJN3nix15SingleBuiltPathEKSt3mapINSt7__cxx1112basic_stringIcSt11char_traitsIcESaIcEEENS0_9StorePathESt4lessIS8_ESaISt4pairIKS8_S9_EEEEESt5tupleIJDpRT_EESL_(ptr dead_on_unwind writable sret(%"class.std::tuple.6") align 8 %7, ptr noundef nonnull align 8 dereferenceable(81) %19, ptr noundef nonnull align 8 dereferenceable(48) %21) #1
  %22 = call i8 @_ZStssIJRN3nix15SingleBuiltPathERKSt3mapINSt7__cxx1112basic_stringIcSt11char_traitsIcESaIcEEENS0_9StorePathESt4lessIS9_ESaISt4pairIKS9_SA_EEEEJS2_SJ_EENSt26common_comparison_categoryIJDpDTclL_ZNSt8__detail11__synth3wayEEclsr3stdE7declvalIRT_EEclsr3stdE7declvalIRT0_EEEEEE4typeERKSt5tupleIJDpSM_EERKSU_IJDpSO_EE(ptr noundef nonnull align 8 dereferenceable(16) %6, ptr noundef nonnull align 8 dereferenceable(16) %7)
  %23 = getelementptr inbounds %"class.std::weak_ordering", ptr %8, i32 0, i32 0
  store i8 %22, ptr %23, align 1
  call void @_ZNSt9__cmp_cat8__unspecC2EPS0_(ptr noundef nonnull align 1 dereferenceable(1) %9, ptr noundef null) #1
  %24 = getelementptr inbounds %"class.std::weak_ordering", ptr %8, i32 0, i32 0
  %25 = load i8, ptr %24, align 1
  %26 = call noundef zeroext i1 @_ZStltSt13weak_orderingNSt9__cmp_cat8__unspecE(i8 %25) #1
  ret i1 %26
}