; Function Attrs: mustprogress uwtable
define noundef zeroext i1 @_ZNK3nix14BuiltPathBuiltltERKS0_(ptr noundef nonnull align 8 dereferenceable(64) %0, ptr noundef nonnull align 8 dereferenceable(64) %1) local_unnamed_addr #5 align 2 personality ptr @__gxx_personality_v0 {
  %3 = alloca %"class.std::tuple.6", align 8
  %4 = alloca %"class.std::tuple.6", align 8
  %5 = load ptr, ptr %0, align 8
  %6 = getelementptr inbounds i8, ptr %0, i64 16
  store ptr %6, ptr %3, align 8, !alias.scope !10
  %7 = getelementptr inbounds i8, ptr %3, i64 8
  store ptr %5, ptr %7, align 8, !alias.scope !10
  %8 = load ptr, ptr %1, align 8
  %9 = getelementptr inbounds i8, ptr %1, i64 16
  store ptr %9, ptr %4, align 8, !alias.scope !13
  %10 = getelementptr inbounds i8, ptr %4, i64 8
  store ptr %8, ptr %10, align 8, !alias.scope !13
  %11 = call i8 @_ZSt11__tuple_cmpISt13weak_orderingSt5tupleIJRN3nix15SingleBuiltPathERKSt3mapINSt7__cxx1112basic_stringIcSt11char_traitsIcESaIcEEENS2_9StorePathESt4lessISB_ESaISt4pairIKSB_SC_EEEEESM_Lm0EJLm1EEET_RKT0_RKT1_St16integer_sequenceImJXT2_EXspT3_EEE(ptr noundef nonnull align 8 dereferenceable(16) %3, ptr noundef nonnull align 8 dereferenceable(16) %4)
  %12 = icmp slt i8 %11, 0
  ret i1 %12
}